target datalayout = "e-m:e-p270:32:32-p271:32:32-p272:64:64-i64:64-i128:128-f80:128-n8:16:32:64-S128"
target triple = "x86_64-pc-linux-gnu"

%struct._zval_struct = type { %union._zend_value, %union.anon, %union.anon.2 }
%union._zend_value = type { i64 }
%union.anon = type { i32 }
%union.anon.2 = type { i32 }
%struct._zend_refcounted_h = type { i32, %union.anon.3 }
%union.anon.3 = type { i32 }
%struct._zend_object = type { %struct._zend_refcounted_h, i32, ptr, ptr, ptr, [1 x %struct._zval_struct] }
%struct._zend_execute_data = type { ptr, ptr, ptr, ptr, %struct._zval_struct, ptr, ptr, ptr, ptr }
%struct._zend_reference = type { %struct._zend_refcounted_h, %struct._zval_struct, %union.zend_property_info_source_list }
%union.zend_property_info_source_list = type { ptr }
%struct._zend_refcounted = type { %struct._zend_refcounted_h }

@zend_known_strings = external global ptr, align 8
@zend_ce_exception = global ptr null, align 8
@zend_ce_error = global ptr null, align 8

; Function Attrs: nounwind uwtable
define internal ptr @i_get_exception_base(ptr noundef %0) #0 {
  %2 = alloca ptr, align 8
  %3 = alloca ptr, align 8
  %4 = alloca ptr, align 8
  store ptr %0, ptr %4, align 8
  %5 = load ptr, ptr %4, align 8
  %6 = getelementptr inbounds %struct._zend_object, ptr %5, i32 0, i32 2
  %7 = load ptr, ptr %6, align 8
  %8 = load ptr, ptr @zend_ce_exception, align 8
  store ptr %7, ptr %2, align 8
  store ptr %8, ptr %3, align 8
  %9 = load ptr, ptr %2, align 8
  %10 = load ptr, ptr %3, align 8
  %11 = icmp eq ptr %9, %10
  br i1 %11, label %16, label %12

12:                                               ; preds = %1
  %13 = load ptr, ptr %2, align 8
  %14 = load ptr, ptr %3, align 8
  %15 = call zeroext i1 @instanceof_function_slow(ptr noundef %13, ptr noundef %14) #12
  br label %16

16:                                               ; preds = %12, %1
  %17 = phi i1 [ true, %1 ], [ %15, %12 ]
  br i1 %17, label %18, label %20

18:                                               ; preds = %16
  %19 = load ptr, ptr @zend_ce_exception, align 8
  br label %22

20:                                               ; preds = %16
  %21 = load ptr, ptr @zend_ce_error, align 8
  br label %22

22:                                               ; preds = %20, %18
  %23 = phi ptr [ %19, %18 ], [ %21, %20 ]
  ret ptr %23
}

; Function Attrs: nounwind uwtable
define hidden void @zim_Exception_getCode(ptr noundef %0, ptr noundef %1) #0 {
  %3 = alloca ptr, align 8
  %4 = alloca ptr, align 8
  %5 = alloca ptr, align 8
  %6 = alloca ptr, align 8
  %7 = alloca ptr, align 8
  %8 = alloca %struct._zval_struct, align 8
  %9 = alloca ptr, align 8
  %10 = alloca ptr, align 8
  %11 = alloca ptr, align 8
  %12 = alloca i32, align 4
  store ptr %0, ptr %5, align 8
  store ptr %1, ptr %6, align 8
  br label %13

13:                                               ; preds = %2
  %14 = load ptr, ptr %5, align 8
  %15 = getelementptr inbounds %struct._zend_execute_data, ptr %14, i32 0, i32 4
  %16 = getelementptr inbounds %struct._zval_struct, ptr %15, i32 0, i32 2
  %17 = load i32, ptr %16, align 4
  %18 = icmp ne i32 %17, 0
  %19 = xor i1 %18, true
  %20 = xor i1 %19, true
  %21 = zext i1 %20 to i32
  %22 = sext i32 %21 to i64
  %23 = icmp ne i64 %22, 0
  br i1 %23, label %24, label %25

24:                                               ; preds = %13
  call void @zend_wrong_parameters_none_error()
  br label %86

25:                                               ; preds = %13
  br label %26

26:                                               ; preds = %25
  %27 = load ptr, ptr %5, align 8
  %28 = getelementptr inbounds %struct._zend_execute_data, ptr %27, i32 0, i32 4
  %29 = getelementptr inbounds %struct._zval_struct, ptr %28, i32 0, i32 0
  %30 = load ptr, ptr %29, align 8
  %31 = call ptr @i_get_exception_base(ptr noundef %30)
  %32 = load ptr, ptr %5, align 8
  %33 = getelementptr inbounds %struct._zend_execute_data, ptr %32, i32 0, i32 4
  %34 = getelementptr inbounds %struct._zval_struct, ptr %33, i32 0, i32 0
  %35 = load ptr, ptr %34, align 8
  %36 = load ptr, ptr @zend_known_strings, align 8
  %37 = getelementptr inbounds ptr, ptr %36, i64 24
  %38 = load ptr, ptr %37, align 8
  %39 = call ptr @zend_read_property_ex(ptr noundef %31, ptr noundef %35, ptr noundef %38, i1 noundef zeroext false, ptr noundef %8)
  store ptr %39, ptr %7, align 8
  br label %40

40:                                               ; preds = %26
  %41 = load ptr, ptr %7, align 8
  store ptr %41, ptr %4, align 8
  %42 = load ptr, ptr %4, align 8
  %43 = getelementptr inbounds %struct._zval_struct, ptr %42, i32 0, i32 1
  %44 = load i8, ptr %43, align 8
  %45 = zext i8 %44 to i32
  %46 = icmp eq i32 %45, 10
  %47 = xor i1 %46, true
  %48 = xor i1 %47, true
  %49 = zext i1 %48 to i32
  %50 = sext i32 %49 to i64
  %51 = icmp ne i64 %50, 0
  br i1 %51, label %52, label %57

52:                                               ; preds = %40
  %53 = load ptr, ptr %7, align 8
  %54 = getelementptr inbounds %struct._zval_struct, ptr %53, i32 0, i32 0
  %55 = load ptr, ptr %54, align 8
  %56 = getelementptr inbounds %struct._zend_reference, ptr %55, i32 0, i32 1
  store ptr %56, ptr %7, align 8
  br label %57

57:                                               ; preds = %52, %40
  br label %58

58:                                               ; preds = %57
  br label %59

59:                                               ; preds = %58
  %60 = load ptr, ptr %6, align 8
  store ptr %60, ptr %9, align 8
  %61 = load ptr, ptr %7, align 8
  store ptr %61, ptr %10, align 8
  %62 = load ptr, ptr %10, align 8
  %63 = getelementptr inbounds %struct._zval_struct, ptr %62, i32 0, i32 0
  %64 = load ptr, ptr %63, align 8
  store ptr %64, ptr %11, align 8
  %65 = load ptr, ptr %10, align 8
  %66 = getelementptr inbounds %struct._zval_struct, ptr %65, i32 0, i32 1
  %67 = load i32, ptr %66, align 8
  store i32 %67, ptr %12, align 4
  br label %68

68:                                               ; preds = %59
  %69 = load ptr, ptr %11, align 8
  %70 = load ptr, ptr %9, align 8
  %71 = getelementptr inbounds %struct._zval_struct, ptr %70, i32 0, i32 0
  store ptr %69, ptr %71, align 8
  %72 = load i32, ptr %12, align 4
  %73 = load ptr, ptr %9, align 8
  %74 = getelementptr inbounds %struct._zval_struct, ptr %73, i32 0, i32 1
  store i32 %72, ptr %74, align 8
  br label %75

75:                                               ; preds = %68
  %76 = load i32, ptr %12, align 4
  %77 = and i32 %76, 65280
  %78 = icmp ne i32 %77, 0
  br i1 %78, label %79, label %85

79:                                               ; preds = %75
  %80 = load ptr, ptr %11, align 8
  %81 = getelementptr inbounds %struct._zend_refcounted, ptr %80, i32 0, i32 0
  store ptr %81, ptr %3, align 8
  %82 = load ptr, ptr %3, align 8
  %83 = load i32, ptr %82, align 4
  %84 = add i32 %83, 1
  store i32 %84, ptr %82, align 4
  br label %85

85:                                               ; preds = %79, %75
  br label %86

86:                                               ; preds = %85, %24
  ret void
}